; Function Attrs: nofree nosync nounwind memory(readwrite, inaccessiblemem: none) uwtable
define i32 @Gia_MuxMffcSize(ptr noundef %0, i32 noundef %1) local_unnamed_addr #5 {
  %3 = getelementptr i8, ptr %0, i64 40
  %.val = load ptr, ptr %3, align 8
  %.not.i = icmp eq ptr %.val, null
  br i1 %.not.i, label %Gia_ObjIsMuxId.exit.thread, label %Gia_ObjIsMuxId.exit

Gia_ObjIsMuxId.exit:                              ; preds = %2
  %4 = sext i32 %1 to i64
  %5 = getelementptr inbounds i32, ptr %.val, i64 %4
  %6 = load i32, ptr %5, align 4
  %.not17 = icmp eq i32 %6, 0
  br i1 %.not17, label %Gia_ObjIsMuxId.exit.thread, label %7

7:                                                ; preds = %Gia_ObjIsMuxId.exit
  %8 = getelementptr i8, ptr %0, i64 32
  %.val.i = load ptr, ptr %8, align 8
  %9 = getelementptr inbounds %struct.Gia_Obj_t_, ptr %.val.i, i64 %4
  %10 = ptrtoint ptr %9 to i64
  %.val3.i.i = load i64, ptr %9, align 4
  %11 = trunc i64 %.val3.i.i to i32
  %12 = and i32 %11, 536870911
  %13 = sub nsw i32 %1, %12
  %14 = tail call i32 @Gia_MuxDeref_rec(ptr noundef nonnull %0, i32 noundef %13)
  %.val11.i = load ptr, ptr %8, align 8
  %15 = ptrtoint ptr %.val11.i to i64
  %16 = sub i64 %10, %15
  %17 = sdiv exact i64 %16, 12
  %18 = trunc i64 %17 to i32
  %.val3.i12.i = load i64, ptr %9, align 4
  %19 = lshr i64 %.val3.i12.i, 32
  %20 = trunc nuw i64 %19 to i32
  %21 = and i32 %20, 536870911
  %22 = sub nsw i32 %18, %21
  %23 = tail call i32 @Gia_MuxDeref_rec(ptr noundef nonnull %0, i32 noundef %22)
  %24 = load ptr, ptr %3, align 8
  %.not.i.i = icmp eq ptr %24, null
  br i1 %.not.i.i, label %Gia_MuxDeref.exit, label %25

25:                                               ; preds = %7
  %.val8.i.i = load ptr, ptr %8, align 8
  %26 = ptrtoint ptr %.val8.i.i to i64
  %27 = sub i64 %10, %26
  %28 = sdiv exact i64 %27, 12
  %sext.i.i = shl i64 %28, 32
  %29 = ashr exact i64 %sext.i.i, 30
  %30 = getelementptr inbounds i8, ptr %24, i64 %29
  %31 = load i32, ptr %30, align 4
  %.not7.i.i = icmp eq i32 %31, 0
  %32 = ashr i32 %31, 1
  %spec.select.i.i = select i1 %.not7.i.i, i32 -1, i32 %32
  br label %Gia_MuxDeref.exit

Gia_MuxDeref.exit:                                ; preds = %7, %25
  %33 = phi i32 [ -1, %7 ], [ %spec.select.i.i, %25 ]
  %34 = tail call i32 @Gia_MuxDeref_rec(ptr noundef nonnull %0, i32 noundef %33)
  %35 = add i32 %14, 1
  %36 = add i32 %35, %23
  %37 = add i32 %36, %34
  %.val.i7 = load ptr, ptr %8, align 8
  %38 = getelementptr inbounds %struct.Gia_Obj_t_, ptr %.val.i7, i64 %4
  %39 = ptrtoint ptr %38 to i64
  %.val3.i.i8 = load i64, ptr %38, align 4
  %40 = trunc i64 %.val3.i.i8 to i32
  %41 = and i32 %40, 536870911
  %42 = sub nsw i32 %1, %41
  %43 = tail call i32 @Gia_MuxRef_rec(ptr noundef nonnull %0, i32 noundef %42)
  %.val11.i9 = load ptr, ptr %8, align 8
  %44 = ptrtoint ptr %.val11.i9 to i64
  %45 = sub i64 %39, %44
  %46 = sdiv exact i64 %45, 12
  %47 = trunc i64 %46 to i32
  %.val3.i12.i10 = load i64, ptr %38, align 4
  %48 = lshr i64 %.val3.i12.i10, 32
  %49 = trunc nuw i64 %48 to i32
  %50 = and i32 %49, 536870911
  %51 = sub nsw i32 %47, %50
  %52 = tail call i32 @Gia_MuxRef_rec(ptr noundef nonnull %0, i32 noundef %51)
  %53 = load ptr, ptr %3, align 8
  %.not.i.i11 = icmp eq ptr %53, null
  br i1 %.not.i.i11, label %Gia_MuxRef.exit, label %54

54:                                               ; preds = %Gia_MuxDeref.exit
  %.val8.i.i12 = load ptr, ptr %8, align 8
  %55 = ptrtoint ptr %.val8.i.i12 to i64
  %56 = sub i64 %39, %55
  %57 = sdiv exact i64 %56, 12
  %sext.i.i13 = shl i64 %57, 32
  %58 = ashr exact i64 %sext.i.i13, 30
  %59 = getelementptr inbounds i8, ptr %53, i64 %58
  %60 = load i32, ptr %59, align 4
  %.not7.i.i14 = icmp eq i32 %60, 0
  %61 = ashr i32 %60, 1
  %spec.select.i.i15 = select i1 %.not7.i.i14, i32 -1, i32 %61
  br label %Gia_MuxRef.exit

Gia_MuxRef.exit:                                  ; preds = %Gia_MuxDeref.exit, %54
  %62 = phi i32 [ -1, %Gia_MuxDeref.exit ], [ %spec.select.i.i15, %54 ]
  %63 = tail call i32 @Gia_MuxRef_rec(ptr noundef nonnull %0, i32 noundef %62)
  br label %Gia_ObjIsMuxId.exit.thread

Gia_ObjIsMuxId.exit.thread:                       ; preds = %2, %Gia_ObjIsMuxId.exit, %Gia_MuxRef.exit
  %.0 = phi i32 [ %37, %Gia_MuxRef.exit ], [ 0, %Gia_ObjIsMuxId.exit ], [ 0, %2 ]
  ret i32 %.0
}